target datalayout = "e-m:e-p270:32:32-p271:32:32-p272:64:64-i64:64-i128:128-f80:128-n8:16:32:64-S128"
target triple = "x86_64-pc-linux-gnu"

@.str.9 = private unnamed_addr constant [25 x i8] c"../openssl/test/dhtest.c\00", align 1
@.str.31 = private unnamed_addr constant [2 x i8] c"p\00", align 1
@.str.33 = private unnamed_addr constant [2 x i8] c"q\00", align 1
@.str.35 = private unnamed_addr constant [2 x i8] c"g\00", align 1
@.str.77 = private unnamed_addr constant [2 x i8] c"0\00", align 1
@.str.115 = private unnamed_addr constant [40 x i8] c"dh = DH_new_by_nid(prime_groups[index])\00", align 1
@prime_groups = internal global [9 x i32] [i32 1126, i32 1127, i32 1128, i32 1129, i32 1130, i32 1213, i32 1214, i32 1215, i32 1216], align 16
@.str.116 = private unnamed_addr constant [15 x i8] c"DH_get_nid(dh)\00", align 1
@.str.117 = private unnamed_addr constant [20 x i8] c"prime_groups[index]\00", align 1
@.str.118 = private unnamed_addr constant [23 x i8] c"(int)DH_get_length(dh)\00", align 1

; Function Attrs: nounwind uwtable
define internal i32 @dh_test_prime_groups(i32 noundef %0) #0 {
  %2 = alloca i32, align 4
  %3 = alloca i32, align 4
  %4 = alloca ptr, align 8
  %5 = alloca ptr, align 8
  %6 = alloca ptr, align 8
  %7 = alloca ptr, align 8
  store i32 %0, ptr %2, align 4, !tbaa !15
  call void @llvm.lifetime.start.p0(i64 4, ptr %3) #3
  store i32 0, ptr %3, align 4, !tbaa !15
  call void @llvm.lifetime.start.p0(i64 8, ptr %4) #3
  store ptr null, ptr %4, align 8, !tbaa !4
  call void @llvm.lifetime.start.p0(i64 8, ptr %5) #3
  call void @llvm.lifetime.start.p0(i64 8, ptr %6) #3
  call void @llvm.lifetime.start.p0(i64 8, ptr %7) #3
  %8 = load i32, ptr %2, align 4, !tbaa !15
  %9 = sext i32 %8 to i64
  %10 = getelementptr inbounds [9 x i32], ptr @prime_groups, i64 0, i64 %9
  %11 = load i32, ptr %10, align 4, !tbaa !15
  %12 = call ptr @DH_new_by_nid(i32 noundef %11)
  store ptr %12, ptr %4, align 8, !tbaa !4
  %13 = call i32 @test_ptr(ptr noundef @.str.9, i32 noundef 737, ptr noundef @.str.115, ptr noundef %12)
  %14 = icmp ne i32 %13, 0
  br i1 %14, label %16, label %15

15:                                               ; preds = %1
  br label %48

16:                                               ; preds = %1
  %17 = load ptr, ptr %4, align 8, !tbaa !4
  call void @DH_get0_pqg(ptr noundef %17, ptr noundef %5, ptr noundef %6, ptr noundef %7)
  %18 = load ptr, ptr %5, align 8, !tbaa !9
  %19 = call i32 @test_ptr(ptr noundef @.str.9, i32 noundef 740, ptr noundef @.str.31, ptr noundef %18)
  %20 = icmp ne i32 %19, 0
  br i1 %20, label %21, label %29

21:                                               ; preds = %16
  %22 = load ptr, ptr %6, align 8, !tbaa !9
  %23 = call i32 @test_ptr(ptr noundef @.str.9, i32 noundef 740, ptr noundef @.str.33, ptr noundef %22)
  %24 = icmp ne i32 %23, 0
  br i1 %24, label %25, label %29

25:                                               ; preds = %21
  %26 = load ptr, ptr %7, align 8, !tbaa !9
  %27 = call i32 @test_ptr(ptr noundef @.str.9, i32 noundef 740, ptr noundef @.str.35, ptr noundef %26)
  %28 = icmp ne i32 %27, 0
  br i1 %28, label %30, label %29

29:                                               ; preds = %25, %21, %16
  br label %48

30:                                               ; preds = %25
  %31 = load ptr, ptr %4, align 8, !tbaa !4
  %32 = call i32 @DH_get_nid(ptr noundef %31)
  %33 = load i32, ptr %2, align 4, !tbaa !15
  %34 = sext i32 %33 to i64
  %35 = getelementptr inbounds [9 x i32], ptr @prime_groups, i64 0, i64 %34
  %36 = load i32, ptr %35, align 4, !tbaa !15
  %37 = call i32 @test_int_eq(ptr noundef @.str.9, i32 noundef 743, ptr noundef @.str.116, ptr noundef @.str.117, i32 noundef %32, i32 noundef %36)
  %38 = icmp ne i32 %37, 0
  br i1 %38, label %40, label %39

39:                                               ; preds = %30
  br label %48

40:                                               ; preds = %30
  %41 = load ptr, ptr %4, align 8, !tbaa !4
  %42 = call i64 @DH_get_length(ptr noundef %41)
  %43 = trunc i64 %42 to i32
  %44 = call i32 @test_int_eq(ptr noundef @.str.9, i32 noundef 747, ptr noundef @.str.118, ptr noundef @.str.77, i32 noundef %43, i32 noundef 0)
  %45 = icmp ne i32 %44, 0
  br i1 %45, label %47, label %46

46:                                               ; preds = %40
  br label %48

47:                                               ; preds = %40
  store i32 1, ptr %3, align 4, !tbaa !15
  br label %48

48:                                               ; preds = %47, %46, %39, %29, %15
  %49 = load ptr, ptr %4, align 8, !tbaa !4
  call void @DH_free(ptr noundef %49)
  %50 = load i32, ptr %3, align 4, !tbaa !15
  call void @llvm.lifetime.end.p0(i64 8, ptr %7) #3
  call void @llvm.lifetime.end.p0(i64 8, ptr %6) #3
  call void @llvm.lifetime.end.p0(i64 8, ptr %5) #3
  call void @llvm.lifetime.end.p0(i64 8, ptr %4) #3
  call void @llvm.lifetime.end.p0(i64 4, ptr %3) #3
  ret i32 %50
}