; Function Attrs: nounwind uwtable
define internal range(i32 0, 2) i32 @dh_test_prime_groups(i32 noundef %0) #0 {
  %2 = alloca ptr, align 8
  %3 = alloca ptr, align 8
  %4 = alloca ptr, align 8
  call void @llvm.lifetime.start.p0(i64 8, ptr nonnull %2) #4
  call void @llvm.lifetime.start.p0(i64 8, ptr nonnull %3) #4
  call void @llvm.lifetime.start.p0(i64 8, ptr nonnull %4) #4
  %5 = sext i32 %0 to i64
  %6 = getelementptr inbounds [9 x i32], ptr @prime_groups, i64 0, i64 %5
  %7 = load i32, ptr %6, align 4, !tbaa !9
  %8 = tail call ptr @DH_new_by_nid(i32 noundef %7) #4
  %9 = tail call i32 @test_ptr(ptr noundef nonnull @.str.9, i32 noundef 737, ptr noundef nonnull @.str.115, ptr noundef %8) #4
  %.not = icmp eq i32 %9, 0
  br i1 %.not, label %26, label %10

10:                                               ; preds = %1
  call void @DH_get0_pqg(ptr noundef %8, ptr noundef nonnull %2, ptr noundef nonnull %3, ptr noundef nonnull %4) #4
  %11 = load ptr, ptr %2, align 8, !tbaa !4
  %12 = call i32 @test_ptr(ptr noundef nonnull @.str.9, i32 noundef 740, ptr noundef nonnull @.str.31, ptr noundef %11) #4
  %.not6 = icmp eq i32 %12, 0
  br i1 %.not6, label %26, label %13

13:                                               ; preds = %10
  %14 = load ptr, ptr %3, align 8, !tbaa !4
  %15 = call i32 @test_ptr(ptr noundef nonnull @.str.9, i32 noundef 740, ptr noundef nonnull @.str.33, ptr noundef %14) #4
  %.not7 = icmp eq i32 %15, 0
  br i1 %.not7, label %26, label %16

16:                                               ; preds = %13
  %17 = load ptr, ptr %4, align 8, !tbaa !4
  %18 = call i32 @test_ptr(ptr noundef nonnull @.str.9, i32 noundef 740, ptr noundef nonnull @.str.35, ptr noundef %17) #4
  %.not8 = icmp eq i32 %18, 0
  br i1 %.not8, label %26, label %19

19:                                               ; preds = %16
  %20 = call i32 @DH_get_nid(ptr noundef %8) #4
  %21 = call i32 @test_int_eq(ptr noundef nonnull @.str.9, i32 noundef 743, ptr noundef nonnull @.str.116, ptr noundef nonnull @.str.117, i32 noundef %20, i32 noundef %7) #4
  %.not9 = icmp eq i32 %21, 0
  br i1 %.not9, label %26, label %22

22:                                               ; preds = %19
  %23 = call i64 @DH_get_length(ptr noundef %8) #4
  %24 = trunc i64 %23 to i32
  %25 = call i32 @test_int_eq(ptr noundef nonnull @.str.9, i32 noundef 747, ptr noundef nonnull @.str.118, ptr noundef nonnull @.str.77, i32 noundef %24, i32 noundef 0) #4
  %.not10 = icmp ne i32 %25, 0
  %spec.select = zext i1 %.not10 to i32
  br label %26

26:                                               ; preds = %22, %19, %10, %13, %16, %1
  %.0 = phi i32 [ 0, %19 ], [ 0, %16 ], [ 0, %13 ], [ 0, %10 ], [ 0, %1 ], [ %spec.select, %22 ]
  call void @DH_free(ptr noundef %8) #4
  call void @llvm.lifetime.end.p0(i64 8, ptr nonnull %4) #4
  call void @llvm.lifetime.end.p0(i64 8, ptr nonnull %3) #4
  call void @llvm.lifetime.end.p0(i64 8, ptr nonnull %2) #4
  ret i32 %.0
}